; Function Attrs: nounwind sspstrong uwtable
define internal i64 @io_buffer_pread(i32 noundef %0, ptr noundef readonly captures(none) %1, i64 noundef %2) #0 {
  %4 = alloca i64, align 8
  %5 = alloca i64, align 8
  %6 = add i32 %0, -5
  %or.cond.i = icmp ult i32 %6, -3
  br i1 %or.cond.i, label %7, label %rb_check_arity.exit

7:                                                ; preds = %3
  tail call void @rb_error_arity(i32 noundef %0, i32 noundef 2, i32 noundef 4) #26
  unreachable

rb_check_arity.exit:                              ; preds = %3
  %8 = load i64, ptr %1, align 8, !tbaa !22
  %9 = getelementptr i8, ptr %1, i64 8
  %10 = load i64, ptr %9, align 8, !tbaa !22
  %11 = and i64 %10, 1
  %.not.i = icmp eq i64 %11, 0
  br i1 %.not.i, label %14, label %12

12:                                               ; preds = %rb_check_arity.exit
  %13 = ashr i64 %10, 1
  br label %rb_num2long_inline.exit

14:                                               ; preds = %rb_check_arity.exit
  %15 = tail call i64 @rb_num2long(i64 noundef %10) #25
  br label %rb_num2long_inline.exit

rb_num2long_inline.exit:                          ; preds = %12, %14
  %.0.i = phi i64 [ %13, %12 ], [ %15, %14 ]
  call void @llvm.lifetime.start.p0(i64 8, ptr nonnull %4) #25
  call void @llvm.lifetime.start.p0(i64 8, ptr nonnull %5) #25
  %16 = add nsw i32 %0, -2
  %17 = getelementptr i8, ptr %1, i64 16
  call fastcc void @io_buffer_extract_length_offset(i64 noundef %2, i32 noundef %16, ptr noundef %17, ptr noundef %4, ptr noundef %5)
  %18 = load i64, ptr %4, align 8, !tbaa !22
  %19 = load i64, ptr %5, align 8, !tbaa !22
  %20 = tail call i64 @rb_io_buffer_pread(i64 noundef %2, i64 noundef %8, i64 noundef %.0.i, i64 noundef %18, i64 noundef %19)
  call void @llvm.lifetime.end.p0(i64 8, ptr nonnull %5) #25
  call void @llvm.lifetime.end.p0(i64 8, ptr nonnull %4) #25
  ret i64 %20
}